target datalayout = "e-m:e-p270:32:32-p271:32:32-p272:64:64-i64:64-i128:128-f80:128-n8:16:32:64-S128"
target triple = "x86_64-pc-linux-gnu"

%struct._icmpstat_t = type { ptr, ptr, i32, i32, i32, i32, double, double, double }
%struct._GSList = type { ptr, ptr }

@.str.6 = private unnamed_addr constant [2 x i8] c"\0A\00", align 1
@.str.7 = private unnamed_addr constant [76 x i8] c"==========================================================================\0A\00", align 1
@.str.8 = private unnamed_addr constant [64 x i8] c"ICMP Service Response Time (SRT) Statistics (all times in ms):\0A\00", align 1
@.str.9 = private unnamed_addr constant [12 x i8] c"Filter: %s\0A\00", align 1
@.str.10 = private unnamed_addr constant [7 x i8] c"<none>\00", align 1
@.str.11 = private unnamed_addr constant [40 x i8] c"\0ARequests  Replies   Lost      %% Loss\0A\00", align 1
@.str.12 = private unnamed_addr constant [25 x i8] c"%-10u%-10u%-10u%5.1f%%\0A\0A\00", align 1
@.str.13 = private unnamed_addr constant [76 x i8] c"Minimum   Maximum   Mean      Median    SDeviation     Min Frame Max Frame\0A\00", align 1
@.str.14 = private unnamed_addr constant [52 x i8] c"%-10.3f%-10.3f%-10.3f%-10.3f%-10.3f     %-10u%-10u\0A\00", align 1
@.str.15 = private unnamed_addr constant [40 x i8] c"0         0         0           0.0%%\0A\0A\00", align 1
@.str.16 = private unnamed_addr constant [68 x i8] c"0.000     0.000     0.000     0.000     0.000          0         0\0A\00", align 1

; Function Attrs: null_pointer_is_valid sspstrong uwtable
define internal void @compute_stats(ptr noundef %0, ptr noundef %1, ptr noundef %2, ptr noundef %3) #0 {
  %5 = alloca ptr, align 8
  %6 = alloca ptr, align 8
  %7 = alloca ptr, align 8
  %8 = alloca ptr, align 8
  %9 = alloca ptr, align 8
  %10 = alloca double, align 8
  %11 = alloca double, align 8
  %12 = alloca i32, align 4
  store ptr %0, ptr %5, align 8
  store ptr %1, ptr %6, align 8
  store ptr %2, ptr %7, align 8
  store ptr %3, ptr %8, align 8
  call void @llvm.lifetime.start.p0(i64 8, ptr %9) #12
  call void @llvm.lifetime.start.p0(i64 8, ptr %10) #12
  call void @llvm.lifetime.start.p0(i64 8, ptr %11) #12
  store double 0.000000e+00, ptr %11, align 8
  %13 = load ptr, ptr %5, align 8
  %14 = getelementptr inbounds nuw %struct._icmpstat_t, ptr %13, i32 0, i32 1
  %15 = load ptr, ptr %14, align 8
  %16 = call ptr @g_slist_sort(ptr noundef %15, ptr noundef @compare_doubles)
  %17 = load ptr, ptr %5, align 8
  %18 = getelementptr inbounds nuw %struct._icmpstat_t, ptr %17, i32 0, i32 1
  store ptr %16, ptr %18, align 8
  %19 = load ptr, ptr %5, align 8
  %20 = getelementptr inbounds nuw %struct._icmpstat_t, ptr %19, i32 0, i32 1
  %21 = load ptr, ptr %20, align 8
  store ptr %21, ptr %9, align 8
  %22 = load ptr, ptr %5, align 8
  %23 = getelementptr inbounds nuw %struct._icmpstat_t, ptr %22, i32 0, i32 3
  %24 = load i32, ptr %23, align 4
  %25 = icmp eq i32 %24, 0
  br i1 %25, label %29, label %26

26:                                               ; preds = %4
  %27 = load ptr, ptr %9, align 8
  %28 = icmp eq ptr %27, null
  br i1 %28, label %29, label %33

29:                                               ; preds = %26, %4
  %30 = load ptr, ptr %6, align 8
  store double 0.000000e+00, ptr %30, align 8
  %31 = load ptr, ptr %7, align 8
  store double 0.000000e+00, ptr %31, align 8
  %32 = load ptr, ptr %8, align 8
  store double 0.000000e+00, ptr %32, align 8
  store i32 1, ptr %12, align 4
  br label %120

33:                                               ; preds = %26
  %34 = load ptr, ptr %5, align 8
  %35 = getelementptr inbounds nuw %struct._icmpstat_t, ptr %34, i32 0, i32 8
  %36 = load double, ptr %35, align 8
  %37 = load ptr, ptr %5, align 8
  %38 = getelementptr inbounds nuw %struct._icmpstat_t, ptr %37, i32 0, i32 3
  %39 = load i32, ptr %38, align 4
  %40 = uitofp i32 %39 to double
  %41 = fdiv double %36, %40
  %42 = load ptr, ptr %6, align 8
  store double %41, ptr %42, align 8
  %43 = load ptr, ptr %5, align 8
  %44 = getelementptr inbounds nuw %struct._icmpstat_t, ptr %43, i32 0, i32 3
  %45 = load i32, ptr %44, align 4
  %46 = and i32 %45, 1
  %47 = icmp ne i32 %46, 0
  br i1 %47, label %48, label %57

48:                                               ; preds = %33
  %49 = load ptr, ptr %9, align 8
  %50 = load ptr, ptr %5, align 8
  %51 = getelementptr inbounds nuw %struct._icmpstat_t, ptr %50, i32 0, i32 3
  %52 = load i32, ptr %51, align 4
  %53 = udiv i32 %52, 2
  %54 = call ptr @g_slist_nth_data(ptr noundef %49, i32 noundef %53)
  %55 = load double, ptr %54, align 8
  %56 = load ptr, ptr %7, align 8
  store double %55, ptr %56, align 8
  br label %76

57:                                               ; preds = %33
  %58 = load ptr, ptr %9, align 8
  %59 = load ptr, ptr %5, align 8
  %60 = getelementptr inbounds nuw %struct._icmpstat_t, ptr %59, i32 0, i32 3
  %61 = load i32, ptr %60, align 4
  %62 = sub i32 %61, 1
  %63 = udiv i32 %62, 2
  %64 = call ptr @g_slist_nth_data(ptr noundef %58, i32 noundef %63)
  %65 = load double, ptr %64, align 8
  %66 = load ptr, ptr %9, align 8
  %67 = load ptr, ptr %5, align 8
  %68 = getelementptr inbounds nuw %struct._icmpstat_t, ptr %67, i32 0, i32 3
  %69 = load i32, ptr %68, align 4
  %70 = udiv i32 %69, 2
  %71 = call ptr @g_slist_nth_data(ptr noundef %66, i32 noundef %70)
  %72 = load double, ptr %71, align 8
  %73 = fadd double %65, %72
  %74 = fdiv double %73, 2.000000e+00
  %75 = load ptr, ptr %7, align 8
  store double %74, ptr %75, align 8
  br label %76

76:                                               ; preds = %57, %48
  br label %77

77:                                               ; preds = %100, %76
  %78 = load ptr, ptr %9, align 8
  %79 = icmp ne ptr %78, null
  br i1 %79, label %80, label %102

80:                                               ; preds = %77
  %81 = load ptr, ptr %9, align 8
  %82 = getelementptr inbounds nuw %struct._GSList, ptr %81, i32 0, i32 0
  %83 = load ptr, ptr %82, align 8
  %84 = load double, ptr %83, align 8
  %85 = load ptr, ptr %6, align 8
  %86 = load double, ptr %85, align 8
  %87 = fsub double %84, %86
  store double %87, ptr %10, align 8
  %88 = load double, ptr %10, align 8
  %89 = load double, ptr %10, align 8
  %90 = load double, ptr %11, align 8
  %91 = call double @llvm.fmuladd.f64(double %88, double %89, double %90)
  store double %91, ptr %11, align 8
  br label %92

92:                                               ; preds = %80
  %93 = load ptr, ptr %9, align 8
  %94 = icmp ne ptr %93, null
  br i1 %94, label %95, label %99

95:                                               ; preds = %92
  %96 = load ptr, ptr %9, align 8
  %97 = getelementptr inbounds nuw %struct._GSList, ptr %96, i32 0, i32 1
  %98 = load ptr, ptr %97, align 8
  br label %100

99:                                               ; preds = %92
  br label %100

100:                                              ; preds = %99, %95
  %101 = phi ptr [ %98, %95 ], [ null, %99 ]
  store ptr %101, ptr %9, align 8
  br label %77, !llvm.loop !7

102:                                              ; preds = %77
  %103 = load ptr, ptr %5, align 8
  %104 = getelementptr inbounds nuw %struct._icmpstat_t, ptr %103, i32 0, i32 3
  %105 = load i32, ptr %104, align 4
  %106 = icmp ugt i32 %105, 1
  br i1 %106, label %107, label %117

107:                                              ; preds = %102
  %108 = load double, ptr %11, align 8
  %109 = load ptr, ptr %5, align 8
  %110 = getelementptr inbounds nuw %struct._icmpstat_t, ptr %109, i32 0, i32 3
  %111 = load i32, ptr %110, align 4
  %112 = sub i32 %111, 1
  %113 = uitofp i32 %112 to double
  %114 = fdiv double %108, %113
  %115 = call double @sqrt(double noundef %114) #12
  %116 = load ptr, ptr %8, align 8
  store double %115, ptr %116, align 8
  br label %119

117:                                              ; preds = %102
  %118 = load ptr, ptr %8, align 8
  store double 0.000000e+00, ptr %118, align 8
  br label %119

119:                                              ; preds = %117, %107
  store i32 0, ptr %12, align 4
  br label %120

120:                                              ; preds = %119, %29
  call void @llvm.lifetime.end.p0(i64 8, ptr %11) #12
  call void @llvm.lifetime.end.p0(i64 8, ptr %10) #12
  call void @llvm.lifetime.end.p0(i64 8, ptr %9) #12
  %121 = load i32, ptr %12, align 4
  switch i32 %121, label %123 [
    i32 0, label %122
    i32 1, label %122
  ]

122:                                              ; preds = %120, %120
  ret void

123:                                              ; preds = %120
  unreachable
}

; Function Attrs: null_pointer_is_valid sspstrong uwtable
define internal void @icmpstat_draw(ptr noundef %0) #0 {
  %2 = alloca ptr, align 8
  %3 = alloca ptr, align 8
  %4 = alloca i32, align 4
  %5 = alloca double, align 8
  %6 = alloca double, align 8
  %7 = alloca double, align 8
  store ptr %0, ptr %2, align 8
  call void @llvm.lifetime.start.p0(i64 8, ptr %3) #12
  %8 = load ptr, ptr %2, align 8
  store ptr %8, ptr %3, align 8
  call void @llvm.lifetime.start.p0(i64 4, ptr %4) #12
  call void @llvm.lifetime.start.p0(i64 8, ptr %5) #12
  call void @llvm.lifetime.start.p0(i64 8, ptr %6) #12
  call void @llvm.lifetime.start.p0(i64 8, ptr %7) #12
  %9 = call i32 (i32, ptr, ...) @__printf_chk(i32 noundef 2, ptr noundef @.str.6)
  %10 = call i32 (i32, ptr, ...) @__printf_chk(i32 noundef 2, ptr noundef @.str.7)
  %11 = call i32 (i32, ptr, ...) @__printf_chk(i32 noundef 2, ptr noundef @.str.8)
  %12 = load ptr, ptr %3, align 8
  %13 = getelementptr inbounds nuw %struct._icmpstat_t, ptr %12, i32 0, i32 0
  %14 = load ptr, ptr %13, align 8
  %15 = icmp ne ptr %14, null
  br i1 %15, label %16, label %20

16:                                               ; preds = %1
  %17 = load ptr, ptr %3, align 8
  %18 = getelementptr inbounds nuw %struct._icmpstat_t, ptr %17, i32 0, i32 0
  %19 = load ptr, ptr %18, align 8
  br label %21

20:                                               ; preds = %1
  br label %21

21:                                               ; preds = %20, %16
  %22 = phi ptr [ %19, %16 ], [ @.str.10, %20 ]
  %23 = call i32 (i32, ptr, ...) @__printf_chk(i32 noundef 2, ptr noundef @.str.9, ptr noundef %22)
  %24 = call i32 (i32, ptr, ...) @__printf_chk(i32 noundef 2, ptr noundef @.str.11)
  %25 = load ptr, ptr %3, align 8
  %26 = getelementptr inbounds nuw %struct._icmpstat_t, ptr %25, i32 0, i32 2
  %27 = load i32, ptr %26, align 8
  %28 = icmp ne i32 %27, 0
  br i1 %28, label %29, label %79

29:                                               ; preds = %21
  %30 = load ptr, ptr %3, align 8
  %31 = getelementptr inbounds nuw %struct._icmpstat_t, ptr %30, i32 0, i32 2
  %32 = load i32, ptr %31, align 8
  %33 = load ptr, ptr %3, align 8
  %34 = getelementptr inbounds nuw %struct._icmpstat_t, ptr %33, i32 0, i32 3
  %35 = load i32, ptr %34, align 4
  %36 = sub i32 %32, %35
  store i32 %36, ptr %4, align 4
  %37 = load ptr, ptr %3, align 8
  call void @compute_stats(ptr noundef %37, ptr noundef %5, ptr noundef %7, ptr noundef %6)
  %38 = load ptr, ptr %3, align 8
  %39 = getelementptr inbounds nuw %struct._icmpstat_t, ptr %38, i32 0, i32 2
  %40 = load i32, ptr %39, align 8
  %41 = load ptr, ptr %3, align 8
  %42 = getelementptr inbounds nuw %struct._icmpstat_t, ptr %41, i32 0, i32 3
  %43 = load i32, ptr %42, align 4
  %44 = load i32, ptr %4, align 4
  %45 = load i32, ptr %4, align 4
  %46 = uitofp i32 %45 to double
  %47 = fmul double 1.000000e+02, %46
  %48 = load ptr, ptr %3, align 8
  %49 = getelementptr inbounds nuw %struct._icmpstat_t, ptr %48, i32 0, i32 2
  %50 = load i32, ptr %49, align 8
  %51 = uitofp i32 %50 to double
  %52 = fdiv double %47, %51
  %53 = call i32 (i32, ptr, ...) @__printf_chk(i32 noundef 2, ptr noundef @.str.12, i32 noundef %40, i32 noundef %43, i32 noundef %44, double noundef %52)
  %54 = call i32 (i32, ptr, ...) @__printf_chk(i32 noundef 2, ptr noundef @.str.13)
  %55 = load ptr, ptr %3, align 8
  %56 = getelementptr inbounds nuw %struct._icmpstat_t, ptr %55, i32 0, i32 6
  %57 = load double, ptr %56, align 8
  %58 = fcmp oge double %57, 0x41EFFFFFFFE00000
  br i1 %58, label %59, label %60

59:                                               ; preds = %29
  br label %64

60:                                               ; preds = %29
  %61 = load ptr, ptr %3, align 8
  %62 = getelementptr inbounds nuw %struct._icmpstat_t, ptr %61, i32 0, i32 6
  %63 = load double, ptr %62, align 8
  br label %64

64:                                               ; preds = %60, %59
  %65 = phi double [ 0.000000e+00, %59 ], [ %63, %60 ]
  %66 = load ptr, ptr %3, align 8
  %67 = getelementptr inbounds nuw %struct._icmpstat_t, ptr %66, i32 0, i32 7
  %68 = load double, ptr %67, align 8
  %69 = load double, ptr %5, align 8
  %70 = load double, ptr %7, align 8
  %71 = load double, ptr %6, align 8
  %72 = load ptr, ptr %3, align 8
  %73 = getelementptr inbounds nuw %struct._icmpstat_t, ptr %72, i32 0, i32 4
  %74 = load i32, ptr %73, align 8
  %75 = load ptr, ptr %3, align 8
  %76 = getelementptr inbounds nuw %struct._icmpstat_t, ptr %75, i32 0, i32 5
  %77 = load i32, ptr %76, align 4
  %78 = call i32 (i32, ptr, ...) @__printf_chk(i32 noundef 2, ptr noundef @.str.14, double noundef %65, double noundef %68, double noundef %69, double noundef %70, double noundef %71, i32 noundef %74, i32 noundef %77)
  br label %83

79:                                               ; preds = %21
  %80 = call i32 (i32, ptr, ...) @__printf_chk(i32 noundef 2, ptr noundef @.str.15)
  %81 = call i32 (i32, ptr, ...) @__printf_chk(i32 noundef 2, ptr noundef @.str.13)
  %82 = call i32 (i32, ptr, ...) @__printf_chk(i32 noundef 2, ptr noundef @.str.16)
  br label %83

83:                                               ; preds = %79, %64
  %84 = call i32 (i32, ptr, ...) @__printf_chk(i32 noundef 2, ptr noundef @.str.7)
  call void @llvm.lifetime.end.p0(i64 8, ptr %7) #12
  call void @llvm.lifetime.end.p0(i64 8, ptr %6) #12
  call void @llvm.lifetime.end.p0(i64 8, ptr %5) #12
  call void @llvm.lifetime.end.p0(i64 4, ptr %4) #12
  call void @llvm.lifetime.end.p0(i64 8, ptr %3) #12
  ret void
}